; Function Attrs: inlinehint mustprogress nofree norecurse nosync nounwind sspstrong willreturn memory(read, inaccessiblemem: none) uwtable
define internal fastcc zeroext i1 @range_string_range_p(i64 noundef %0, i64 noundef %1) unnamed_addr #5 {
  %3 = icmp eq i64 %0, 0
  %4 = and i64 %0, 7
  %5 = icmp ne i64 %4, 0
  %6 = or i1 %3, %5
  br i1 %6, label %rbimpl_RB_TYPE_P_fastpath.exit, label %rbimpl_RB_TYPE_P_fastpath.exit3

rbimpl_RB_TYPE_P_fastpath.exit3:                  ; preds = %2
  %7 = inttoptr i64 %0 to ptr
  %8 = load i64, ptr %7, align 8, !tbaa !11
  %9 = and i64 %8, 31
  %10 = icmp eq i64 %9, 5
  br i1 %10, label %11, label %rbimpl_RB_TYPE_P_fastpath.exit

11:                                               ; preds = %rbimpl_RB_TYPE_P_fastpath.exit3
  %12 = icmp eq i64 %1, 0
  %13 = and i64 %1, 7
  %14 = icmp ne i64 %13, 0
  %15 = or i1 %12, %14
  br i1 %15, label %rbimpl_RB_TYPE_P_fastpath.exit, label %16

16:                                               ; preds = %11
  %17 = inttoptr i64 %1 to ptr
  %18 = load i64, ptr %17, align 8, !tbaa !11
  %19 = and i64 %18, 31
  %20 = icmp eq i64 %19, 5
  br label %rbimpl_RB_TYPE_P_fastpath.exit

rbimpl_RB_TYPE_P_fastpath.exit:                   ; preds = %2, %16, %11, %rbimpl_RB_TYPE_P_fastpath.exit3
  %21 = phi i1 [ false, %rbimpl_RB_TYPE_P_fastpath.exit3 ], [ false, %11 ], [ %20, %16 ], [ false, %2 ]
  ret i1 %21
}